target datalayout = "e-m:e-p270:32:32-p271:32:32-p272:64:64-i64:64-i128:128-f80:128-n8:16:32:64-S128"
target triple = "x86_64-pc-linux-gnu"

%struct.AVRational = type { i32, i32 }

; Function Attrs: alwaysinline nounwind willreturn memory(none) uwtable
define internal i32 @av_clip_c(i32 noundef %0, i32 noundef %1, i32 noundef %2) #3 {
  %4 = alloca i32, align 4
  %5 = alloca i32, align 4
  %6 = alloca i32, align 4
  %7 = alloca i32, align 4
  store i32 %0, ptr %5, align 4, !tbaa !4
  store i32 %1, ptr %6, align 4, !tbaa !4
  store i32 %2, ptr %7, align 4, !tbaa !4
  %8 = load i32, ptr %5, align 4, !tbaa !4
  %9 = load i32, ptr %6, align 4, !tbaa !4
  %10 = icmp slt i32 %8, %9
  br i1 %10, label %11, label %13

11:                                               ; preds = %3
  %12 = load i32, ptr %6, align 4, !tbaa !4
  store i32 %12, ptr %4, align 4
  br label %21

13:                                               ; preds = %3
  %14 = load i32, ptr %5, align 4, !tbaa !4
  %15 = load i32, ptr %7, align 4, !tbaa !4
  %16 = icmp sgt i32 %14, %15
  br i1 %16, label %17, label %19

17:                                               ; preds = %13
  %18 = load i32, ptr %7, align 4, !tbaa !4
  store i32 %18, ptr %4, align 4
  br label %21

19:                                               ; preds = %13
  %20 = load i32, ptr %5, align 4, !tbaa !4
  store i32 %20, ptr %4, align 4
  br label %21

21:                                               ; preds = %19, %17, %11
  %22 = load i32, ptr %4, align 4
  ret i32 %22
}

; Function Attrs: inlinehint nounwind uwtable
define internal i32 @av_cmp_q(i64 %0, i64 %1) #2 {
  %3 = alloca i32, align 4
  %4 = alloca %struct.AVRational, align 4
  %5 = alloca %struct.AVRational, align 4
  %6 = alloca i64, align 8
  %7 = alloca i32, align 4
  store i64 %0, ptr %4, align 4
  store i64 %1, ptr %5, align 4
  call void @llvm.lifetime.start.p0(i64 8, ptr %6) #8
  %8 = getelementptr inbounds nuw %struct.AVRational, ptr %4, i32 0, i32 0
  %9 = load i32, ptr %8, align 4, !tbaa !15
  %10 = sext i32 %9 to i64
  %11 = getelementptr inbounds nuw %struct.AVRational, ptr %5, i32 0, i32 1
  %12 = load i32, ptr %11, align 4, !tbaa !16
  %13 = sext i32 %12 to i64
  %14 = mul nsw i64 %10, %13
  %15 = getelementptr inbounds nuw %struct.AVRational, ptr %5, i32 0, i32 0
  %16 = load i32, ptr %15, align 4, !tbaa !15
  %17 = sext i32 %16 to i64
  %18 = getelementptr inbounds nuw %struct.AVRational, ptr %4, i32 0, i32 1
  %19 = load i32, ptr %18, align 4, !tbaa !16
  %20 = sext i32 %19 to i64
  %21 = mul nsw i64 %17, %20
  %22 = sub nsw i64 %14, %21
  store i64 %22, ptr %6, align 8, !tbaa !17
  %23 = load i64, ptr %6, align 8, !tbaa !17
  %24 = icmp ne i64 %23, 0
  br i1 %24, label %25, label %38

25:                                               ; preds = %2
  %26 = load i64, ptr %6, align 8, !tbaa !17
  %27 = getelementptr inbounds nuw %struct.AVRational, ptr %4, i32 0, i32 1
  %28 = load i32, ptr %27, align 4, !tbaa !16
  %29 = sext i32 %28 to i64
  %30 = xor i64 %26, %29
  %31 = getelementptr inbounds nuw %struct.AVRational, ptr %5, i32 0, i32 1
  %32 = load i32, ptr %31, align 4, !tbaa !16
  %33 = sext i32 %32 to i64
  %34 = xor i64 %30, %33
  %35 = ashr i64 %34, 63
  %36 = trunc i64 %35 to i32
  %37 = or i32 %36, 1
  store i32 %37, ptr %3, align 4
  store i32 1, ptr %7, align 4
  br label %64

38:                                               ; preds = %2
  %39 = getelementptr inbounds nuw %struct.AVRational, ptr %5, i32 0, i32 1
  %40 = load i32, ptr %39, align 4, !tbaa !16
  %41 = icmp ne i32 %40, 0
  br i1 %41, label %42, label %47

42:                                               ; preds = %38
  %43 = getelementptr inbounds nuw %struct.AVRational, ptr %4, i32 0, i32 1
  %44 = load i32, ptr %43, align 4, !tbaa !16
  %45 = icmp ne i32 %44, 0
  br i1 %45, label %46, label %47

46:                                               ; preds = %42
  store i32 0, ptr %3, align 4
  store i32 1, ptr %7, align 4
  br label %64

47:                                               ; preds = %42, %38
  %48 = getelementptr inbounds nuw %struct.AVRational, ptr %4, i32 0, i32 0
  %49 = load i32, ptr %48, align 4, !tbaa !15
  %50 = icmp ne i32 %49, 0
  br i1 %50, label %51, label %63

51:                                               ; preds = %47
  %52 = getelementptr inbounds nuw %struct.AVRational, ptr %5, i32 0, i32 0
  %53 = load i32, ptr %52, align 4, !tbaa !15
  %54 = icmp ne i32 %53, 0
  br i1 %54, label %55, label %63

55:                                               ; preds = %51
  %56 = getelementptr inbounds nuw %struct.AVRational, ptr %4, i32 0, i32 0
  %57 = load i32, ptr %56, align 4, !tbaa !15
  %58 = ashr i32 %57, 31
  %59 = getelementptr inbounds nuw %struct.AVRational, ptr %5, i32 0, i32 0
  %60 = load i32, ptr %59, align 4, !tbaa !15
  %61 = ashr i32 %60, 31
  %62 = sub nsw i32 %58, %61
  store i32 %62, ptr %3, align 4
  store i32 1, ptr %7, align 4
  br label %64

63:                                               ; preds = %51, %47
  store i32 -2147483648, ptr %3, align 4
  store i32 1, ptr %7, align 4
  br label %64

64:                                               ; preds = %63, %55, %46, %25
  call void @llvm.lifetime.end.p0(i64 8, ptr %6) #8
  %65 = load i32, ptr %3, align 4
  ret i32 %65
}

; Function Attrs: nounwind uwtable
define i32 @av_timecode_get_smpte(i64 %0, i32 noundef %1, i32 noundef %2, i32 noundef %3, i32 noundef %4, i32 noundef %5) #0 {
  %7 = alloca %struct.AVRational, align 4
  %8 = alloca i32, align 4
  %9 = alloca i32, align 4
  %10 = alloca i32, align 4
  %11 = alloca i32, align 4
  %12 = alloca i32, align 4
  %13 = alloca i32, align 4
  %14 = alloca %struct.AVRational, align 4
  %15 = alloca %struct.AVRational, align 4
  store i64 %0, ptr %7, align 4
  store i32 %1, ptr %8, align 4, !tbaa !4
  store i32 %2, ptr %9, align 4, !tbaa !4
  store i32 %3, ptr %10, align 4, !tbaa !4
  store i32 %4, ptr %11, align 4, !tbaa !4
  store i32 %5, ptr %12, align 4, !tbaa !4
  call void @llvm.lifetime.start.p0(i64 4, ptr %13) #8
  store i32 0, ptr %13, align 4, !tbaa !4
  %16 = getelementptr inbounds nuw %struct.AVRational, ptr %14, i32 0, i32 0
  store i32 30, ptr %16, align 4, !tbaa !15
  %17 = getelementptr inbounds nuw %struct.AVRational, ptr %14, i32 0, i32 1
  store i32 1, ptr %17, align 4, !tbaa !16
  %18 = load i64, ptr %7, align 4
  %19 = load i64, ptr %14, align 4
  %20 = call i32 @av_cmp_q(i64 %18, i64 %19)
  %21 = icmp eq i32 %20, 1
  br i1 %21, label %22, label %43

22:                                               ; preds = %6
  %23 = load i32, ptr %12, align 4, !tbaa !4
  %24 = srem i32 %23, 2
  %25 = icmp eq i32 %24, 1
  br i1 %25, label %26, label %40

26:                                               ; preds = %22
  %27 = getelementptr inbounds nuw %struct.AVRational, ptr %15, i32 0, i32 0
  store i32 50, ptr %27, align 4, !tbaa !15
  %28 = getelementptr inbounds nuw %struct.AVRational, ptr %15, i32 0, i32 1
  store i32 1, ptr %28, align 4, !tbaa !16
  %29 = load i64, ptr %7, align 4
  %30 = load i64, ptr %15, align 4
  %31 = call i32 @av_cmp_q(i64 %29, i64 %30)
  %32 = icmp eq i32 %31, 0
  br i1 %32, label %33, label %36

33:                                               ; preds = %26
  %34 = load i32, ptr %13, align 4, !tbaa !4
  %35 = or i32 %34, 128
  store i32 %35, ptr %13, align 4, !tbaa !4
  br label %39

36:                                               ; preds = %26
  %37 = load i32, ptr %13, align 4, !tbaa !4
  %38 = or i32 %37, 8388608
  store i32 %38, ptr %13, align 4, !tbaa !4
  br label %39

39:                                               ; preds = %36, %33
  br label %40

40:                                               ; preds = %39, %22
  %41 = load i32, ptr %12, align 4, !tbaa !4
  %42 = sdiv i32 %41, 2
  store i32 %42, ptr %12, align 4, !tbaa !4
  br label %43

43:                                               ; preds = %40, %6
  %44 = load i32, ptr %9, align 4, !tbaa !4
  %45 = srem i32 %44, 24
  store i32 %45, ptr %9, align 4, !tbaa !4
  %46 = load i32, ptr %10, align 4, !tbaa !4
  %47 = call i32 @av_clip_c(i32 noundef %46, i32 noundef 0, i32 noundef 59) #9
  store i32 %47, ptr %10, align 4, !tbaa !4
  %48 = load i32, ptr %11, align 4, !tbaa !4
  %49 = call i32 @av_clip_c(i32 noundef %48, i32 noundef 0, i32 noundef 59) #9
  store i32 %49, ptr %11, align 4, !tbaa !4
  %50 = load i32, ptr %12, align 4, !tbaa !4
  %51 = srem i32 %50, 40
  store i32 %51, ptr %12, align 4, !tbaa !4
  %52 = load i32, ptr %8, align 4, !tbaa !4
  %53 = shl i32 %52, 30
  %54 = load i32, ptr %13, align 4, !tbaa !4
  %55 = or i32 %54, %53
  store i32 %55, ptr %13, align 4, !tbaa !4
  %56 = load i32, ptr %12, align 4, !tbaa !4
  %57 = sdiv i32 %56, 10
  %58 = shl i32 %57, 28
  %59 = load i32, ptr %13, align 4, !tbaa !4
  %60 = or i32 %59, %58
  store i32 %60, ptr %13, align 4, !tbaa !4
  %61 = load i32, ptr %12, align 4, !tbaa !4
  %62 = srem i32 %61, 10
  %63 = shl i32 %62, 24
  %64 = load i32, ptr %13, align 4, !tbaa !4
  %65 = or i32 %64, %63
  store i32 %65, ptr %13, align 4, !tbaa !4
  %66 = load i32, ptr %11, align 4, !tbaa !4
  %67 = sdiv i32 %66, 10
  %68 = shl i32 %67, 20
  %69 = load i32, ptr %13, align 4, !tbaa !4
  %70 = or i32 %69, %68
  store i32 %70, ptr %13, align 4, !tbaa !4
  %71 = load i32, ptr %11, align 4, !tbaa !4
  %72 = srem i32 %71, 10
  %73 = shl i32 %72, 16
  %74 = load i32, ptr %13, align 4, !tbaa !4
  %75 = or i32 %74, %73
  store i32 %75, ptr %13, align 4, !tbaa !4
  %76 = load i32, ptr %10, align 4, !tbaa !4
  %77 = sdiv i32 %76, 10
  %78 = shl i32 %77, 12
  %79 = load i32, ptr %13, align 4, !tbaa !4
  %80 = or i32 %79, %78
  store i32 %80, ptr %13, align 4, !tbaa !4
  %81 = load i32, ptr %10, align 4, !tbaa !4
  %82 = srem i32 %81, 10
  %83 = shl i32 %82, 8
  %84 = load i32, ptr %13, align 4, !tbaa !4
  %85 = or i32 %84, %83
  store i32 %85, ptr %13, align 4, !tbaa !4
  %86 = load i32, ptr %9, align 4, !tbaa !4
  %87 = sdiv i32 %86, 10
  %88 = shl i32 %87, 4
  %89 = load i32, ptr %13, align 4, !tbaa !4
  %90 = or i32 %89, %88
  store i32 %90, ptr %13, align 4, !tbaa !4
  %91 = load i32, ptr %9, align 4, !tbaa !4
  %92 = srem i32 %91, 10
  %93 = load i32, ptr %13, align 4, !tbaa !4
  %94 = or i32 %93, %92
  store i32 %94, ptr %13, align 4, !tbaa !4
  %95 = load i32, ptr %13, align 4, !tbaa !4
  call void @llvm.lifetime.end.p0(i64 4, ptr %13) #8
  ret i32 %95
}