; Function Attrs: mustprogress nofree norecurse nosync nounwind willreturn memory(none) uwtable
define i32 @av_timecode_get_smpte(i64 %0, i32 noundef %1, i32 noundef %2, i32 noundef %3, i32 noundef %4, i32 noundef %5) local_unnamed_addr #0 {
  %.fr = freeze i64 %0
  %.sroa.011.0.extract.trunc.i = trunc i64 %.fr to i32
  %sext.i = shl i64 %.fr, 32
  %7 = ashr exact i64 %sext.i, 32
  %8 = ashr i64 %.fr, 32
  %9 = mul nsw i64 %8, 30
  %.not.i = icmp eq i64 %7, %9
  br i1 %.not.i, label %av_cmp_q.exit.thread, label %av_cmp_q.exit

av_cmp_q.exit:                                    ; preds = %6
  %10 = sub nsw i64 %7, %9
  %11 = xor i64 %10, %8
  %12 = icmp sgt i64 %11, -1
  br i1 %12, label %13, label %av_cmp_q.exit.thread

13:                                               ; preds = %av_cmp_q.exit
  %14 = and i32 %5, -2147483647
  %15 = icmp eq i32 %14, 1
  br i1 %15, label %16, label %av_cmp_q.exit41.thread

16:                                               ; preds = %13
  %17 = mul nsw i64 %8, 50
  %.not.i37 = icmp eq i64 %7, %17
  br i1 %.not.i37, label %18, label %av_cmp_q.exit41.thread

18:                                               ; preds = %16
  %19 = icmp ugt i64 %.fr, 4294967295
  %or.cond = icmp sgt i32 %.sroa.011.0.extract.trunc.i, 0
  %or.cond61 = or i1 %19, %or.cond
  %spec.select = select i1 %or.cond61, i32 128, i32 8388608
  br label %av_cmp_q.exit41.thread

av_cmp_q.exit41.thread:                           ; preds = %18, %16, %13
  %.1 = phi i32 [ 0, %13 ], [ 8388608, %16 ], [ %spec.select, %18 ]
  %20 = sdiv i32 %5, 2
  br label %av_cmp_q.exit.thread

av_cmp_q.exit.thread:                             ; preds = %6, %av_cmp_q.exit41.thread, %av_cmp_q.exit
  %.031 = phi i32 [ %.1, %av_cmp_q.exit41.thread ], [ 0, %av_cmp_q.exit ], [ 0, %6 ]
  %.0 = phi i32 [ %20, %av_cmp_q.exit41.thread ], [ %5, %av_cmp_q.exit ], [ %5, %6 ]
  %21 = srem i32 %2, 24
  %22 = icmp slt i32 %3, 0
  %..i = tail call i32 @llvm.umin.i32(i32 %3, i32 59)
  %23 = icmp slt i32 %4, 0
  %..i32 = tail call i32 @llvm.umin.i32(i32 %4, i32 59)
  %24 = srem i32 %.0, 40
  %25 = shl i32 %1, 30
  %.lhs.trunc = trunc nsw i32 %24 to i8
  %26 = sdiv i8 %.lhs.trunc, 10
  %.sext = sext i8 %26 to i32
  %27 = shl nsw i32 %.sext, 28
  %28 = srem i8 %.lhs.trunc, 10
  %.sext49 = sext i8 %28 to i32
  %29 = shl nsw i32 %.sext49, 24
  %30 = trunc nuw nsw i32 %..i32 to i8
  %.lhs.trunc50 = select i1 %23, i8 0, i8 %30
  %31 = udiv i8 %.lhs.trunc50, 10
  %.zext = zext nneg i8 %31 to i32
  %32 = shl nuw nsw i32 %.zext, 20
  %33 = urem i8 %.lhs.trunc50, 10
  %.zext52 = zext nneg i8 %33 to i32
  %34 = shl nuw nsw i32 %.zext52, 16
  %35 = trunc nuw nsw i32 %..i to i8
  %.lhs.trunc53 = select i1 %22, i8 0, i8 %35
  %36 = udiv i8 %.lhs.trunc53, 10
  %.zext54 = zext nneg i8 %36 to i32
  %37 = shl nuw nsw i32 %.zext54, 12
  %38 = urem i8 %.lhs.trunc53, 10
  %.zext56 = zext nneg i8 %38 to i32
  %39 = shl nuw nsw i32 %.zext56, 8
  %.lhs.trunc57 = trunc nsw i32 %21 to i8
  %40 = sdiv i8 %.lhs.trunc57, 10
  %.sext58 = sext i8 %40 to i32
  %41 = shl nsw i32 %.sext58, 4
  %42 = srem i8 %.lhs.trunc57, 10
  %.sext60 = sext i8 %42 to i32
  %43 = or i32 %25, %.sext60
  %44 = or i32 %43, %41
  %45 = or i32 %44, %37
  %46 = or i32 %45, %39
  %47 = or i32 %46, %32
  %48 = or i32 %47, %34
  %49 = or i32 %48, %.031
  %50 = or i32 %49, %27
  %51 = or i32 %50, %29
  ret i32 %51
}